; Function Attrs: nounwind uwtable
define range(i32 0, 2) i32 @Gia_ManMappingVerify_rec(ptr noundef readonly captures(none) %0, ptr noundef %1) local_unnamed_addr #4 {
  %3 = getelementptr inbounds nuw i8, ptr %0, i64 616
  %4 = load ptr, ptr %3, align 8, !tbaa !85
  %5 = getelementptr i8, ptr %0, i64 32
  %.val.i = load ptr, ptr %5, align 8, !tbaa !55
  %6 = ptrtoint ptr %1 to i64
  %7 = ptrtoint ptr %.val.i to i64
  %8 = sub i64 %6, %7
  %9 = sdiv exact i64 %8, 12
  %sext.i = shl i64 %9, 32
  %10 = ashr exact i64 %sext.i, 30
  %11 = getelementptr inbounds i8, ptr %4, i64 %10
  %12 = load i32, ptr %11, align 4, !tbaa !48
  %13 = getelementptr inbounds nuw i8, ptr %0, i64 176
  %14 = load i32, ptr %13, align 8, !tbaa !84
  %.not = icmp eq i32 %12, %14
  br i1 %.not, label %.critedge, label %15

15:                                               ; preds = %2
  store i32 %14, ptr %11, align 4, !tbaa !48
  %.val36 = load i64, ptr %1, align 4
  %16 = and i64 %.val36, 2147483648
  %.not.i.i = icmp ne i64 %16, 0
  %17 = and i64 %.val36, 536870911
  %18 = icmp eq i64 %17, 536870911
  %narrow.i.not.i = or i1 %.not.i.i, %18
  br i1 %narrow.i.not.i, label %.critedge, label %Gia_ObjIsAndNotBuf.exit

Gia_ObjIsAndNotBuf.exit:                          ; preds = %15
  %19 = lshr i64 %.val36, 32
  %20 = xor i64 %19, %.val36
  %21 = and i64 %20, 536870911
  %.not40 = icmp eq i64 %21, 0
  br i1 %.not40, label %.critedge, label %22

22:                                               ; preds = %Gia_ObjIsAndNotBuf.exit
  %23 = getelementptr i8, ptr %0, i64 264
  %.val = load ptr, ptr %23, align 8, !tbaa !46
  %24 = getelementptr i8, ptr %.val, i64 8
  %.val.val = load ptr, ptr %24, align 8, !tbaa !47
  %25 = ashr exact i64 %sext.i, 32
  %26 = getelementptr inbounds i32, ptr %.val.val, i64 %25
  %27 = load i32, ptr %26, align 4, !tbaa !48
  %.not41 = icmp eq i32 %27, 0
  br i1 %.not41, label %32, label %.preheader

.preheader:                                       ; preds = %22
  %28 = sext i32 %27 to i64
  %29 = getelementptr inbounds i32, ptr %.val.val, i64 %28
  %30 = load i32, ptr %29, align 4, !tbaa !48
  %31 = icmp sgt i32 %30, 0
  br i1 %31, label %.lr.ph, label %.critedge

32:                                               ; preds = %22
  %33 = trunc i64 %9 to i32
  tail call void (i32, ptr, ...) @Abc_Print(i32 noundef -1, ptr noundef nonnull @.str.44, i32 noundef %33)
  br label %.critedge

.lr.ph:                                           ; preds = %.preheader, %42
  %.val3047 = phi ptr [ %.val30, %42 ], [ %.val, %.preheader ]
  %indvars.iv = phi i64 [ %indvars.iv.next, %42 ], [ 0, %.preheader ]
  %34 = phi ptr [ %47, %42 ], [ %29, %.preheader ]
  %.045 = phi i32 [ %.1, %42 ], [ 1, %.preheader ]
  %.not29 = icmp eq i32 %.045, 0
  br i1 %.not29, label %42, label %35

35:                                               ; preds = %.lr.ph
  %36 = getelementptr inbounds nuw i8, ptr %34, i64 4
  %37 = getelementptr inbounds nuw i32, ptr %36, i64 %indvars.iv
  %38 = load i32, ptr %37, align 4, !tbaa !48
  %.val32 = load ptr, ptr %5, align 8, !tbaa !55
  %39 = sext i32 %38 to i64
  %40 = getelementptr inbounds %struct.Gia_Obj_t_, ptr %.val32, i64 %39
  %41 = tail call i32 @Gia_ManMappingVerify_rec(ptr noundef nonnull %0, ptr noundef %40)
  %.val30.pre = load ptr, ptr %23, align 8, !tbaa !46
  br label %42

42:                                               ; preds = %.lr.ph, %35
  %.val30 = phi ptr [ %.val30.pre, %35 ], [ %.val3047, %.lr.ph ]
  %.1 = phi i32 [ %41, %35 ], [ 0, %.lr.ph ]
  %indvars.iv.next = add nuw nsw i64 %indvars.iv, 1
  %43 = getelementptr i8, ptr %.val30, i64 8
  %.val30.val = load ptr, ptr %43, align 8, !tbaa !47
  %44 = getelementptr inbounds i32, ptr %.val30.val, i64 %25
  %45 = load i32, ptr %44, align 4, !tbaa !48
  %46 = sext i32 %45 to i64
  %47 = getelementptr inbounds i32, ptr %.val30.val, i64 %46
  %48 = load i32, ptr %47, align 4, !tbaa !48
  %49 = sext i32 %48 to i64
  %50 = icmp slt i64 %indvars.iv.next, %49
  br i1 %50, label %.lr.ph, label %.critedge, !llvm.loop !278

.critedge:                                        ; preds = %42, %.preheader, %15, %Gia_ObjIsAndNotBuf.exit, %2, %32
  %.026 = phi i32 [ 0, %32 ], [ 1, %2 ], [ 1, %Gia_ObjIsAndNotBuf.exit ], [ 1, %15 ], [ 1, %.preheader ], [ %.1, %42 ]
  ret i32 %.026
}